target datalayout = "e-m:e-p270:32:32-p271:32:32-p272:64:64-i64:64-i128:128-f80:128-n8:16:32:64-S128"
target triple = "x86_64-pc-linux-gnu"

%struct.quic_obj_st = type { %struct.ssl_st, ptr, ptr, ptr, ptr, ptr, i64, i8 }
%struct.ssl_st = type { i32, ptr, ptr, ptr, %struct.CRYPTO_REF_COUNT, ptr, %struct.crypto_ex_data_st }
%struct.CRYPTO_REF_COUNT = type { i32 }
%struct.crypto_ex_data_st = type { ptr, ptr }
%struct.OSSL_TIME = type { i64 }
%struct.qctx_st = type { ptr, ptr, ptr, ptr, ptr, i32, i32, i32, i32 }
%struct.quic_xso_st = type { %struct.quic_obj_st, ptr, ptr, i8, ptr, i64, i64, i32, i64, i32 }
%struct.quic_stream_st = type { %struct.quic_stream_list_node_st, %struct.quic_stream_list_node_st, %struct.quic_stream_list_node_st, ptr, i64, i64, i64, i64, i64, i64, i64, ptr, ptr, %struct.quic_txfc_st, %struct.quic_rxfc_st, i64 }
%struct.quic_stream_list_node_st = type { ptr, ptr }
%struct.quic_txfc_st = type { ptr, i64, i64, i8 }
%struct.quic_rxfc_st = type { i64, i64, i64, i64, i64, i64, i64, %struct.OSSL_TIME, ptr, ptr, ptr, i8, i8, i8, i8 }

@.str = private unnamed_addr constant [32 x i8] c"../openssl/ssl/quic/quic_impl.c\00", align 1
@__func__.ossl_quic_set_write_buffer_size = private unnamed_addr constant [32 x i8] c"ossl_quic_set_write_buffer_size\00", align 1

; Function Attrs: inlinehint nounwind uwtable
define internal ptr @ossl_quic_obj_get0_engine(ptr noundef %0) #3 {
  %2 = alloca ptr, align 8
  store ptr %0, ptr %2, align 8, !tbaa !172
  %3 = load ptr, ptr %2, align 8, !tbaa !172
  %4 = getelementptr inbounds nuw %struct.quic_obj_st, ptr %3, i32 0, i32 4
  %5 = load ptr, ptr %4, align 8, !tbaa !168
  ret ptr %5
}

; Function Attrs: inlinehint nounwind uwtable
define internal ptr @ossl_quic_obj_get0_mutex(ptr noundef %0) #3 {
  %2 = alloca ptr, align 8
  store ptr %0, ptr %2, align 8, !tbaa !172
  %3 = load ptr, ptr %2, align 8, !tbaa !172
  %4 = call ptr @ossl_quic_obj_get0_engine(ptr noundef %3)
  %5 = call ptr @ossl_quic_engine_get0_mutex(ptr noundef %4)
  ret ptr %5
}

; Function Attrs: nounwind uwtable
define internal void @qctx_unlock(ptr noundef %0) #0 {
  %2 = alloca ptr, align 8
  store ptr %0, ptr %2, align 8, !tbaa !119
  %3 = load ptr, ptr %2, align 8, !tbaa !119
  %4 = getelementptr inbounds nuw %struct.qctx_st, ptr %3, i32 0, i32 0
  %5 = load ptr, ptr %4, align 8, !tbaa !166
  %6 = call ptr @ossl_quic_obj_get0_mutex(ptr noundef %5)
  call void @ossl_crypto_mutex_unlock(ptr noundef %6)
  ret void
}

; Function Attrs: inlinehint nounwind uwtable
define internal i32 @ossl_quic_stream_has_send_buffer(ptr noundef %0) #3 {
  %2 = alloca i32, align 4
  %3 = alloca ptr, align 8
  store ptr %0, ptr %3, align 8, !tbaa !204
  %4 = load ptr, ptr %3, align 8, !tbaa !204
  %5 = getelementptr inbounds nuw %struct.quic_stream_st, ptr %4, i32 0, i32 15
  %6 = load i64, ptr %5, align 8
  %7 = lshr i64 %6, 8
  %8 = and i64 %7, 255
  %9 = trunc i64 %8 to i32
  switch i32 %9, label %11 [
    i32 1, label %10
    i32 2, label %10
    i32 3, label %10
  ]

10:                                               ; preds = %1, %1, %1
  store i32 1, ptr %2, align 4
  br label %12

11:                                               ; preds = %1
  store i32 0, ptr %2, align 4
  br label %12

12:                                               ; preds = %11, %10
  %13 = load i32, ptr %2, align 4
  ret i32 %13
}

; Function Attrs: inlinehint nounwind uwtable
define internal i32 @ossl_quic_stream_has_send(ptr noundef %0) #3 {
  %2 = alloca ptr, align 8
  store ptr %0, ptr %2, align 8, !tbaa !204
  %3 = load ptr, ptr %2, align 8, !tbaa !204
  %4 = getelementptr inbounds nuw %struct.quic_stream_st, ptr %3, i32 0, i32 15
  %5 = load i64, ptr %4, align 8
  %6 = lshr i64 %5, 8
  %7 = and i64 %6, 255
  %8 = trunc i64 %7 to i32
  %9 = icmp ne i32 %8, 0
  %10 = zext i1 %9 to i32
  ret i32 %10
}

; Function Attrs: nounwind uwtable
define internal i32 @expect_quic_with_stream_lock(ptr noundef %0, i32 noundef %1, i32 noundef %2, ptr noundef %3) #0 {
  %5 = alloca ptr, align 8
  %6 = alloca i32, align 4
  %7 = alloca i32, align 4
  %8 = alloca ptr, align 8
  %9 = alloca i32, align 4
  store ptr %0, ptr %5, align 8, !tbaa !136
  store i32 %1, ptr %6, align 4, !tbaa !122
  store i32 %2, ptr %7, align 4, !tbaa !122
  store ptr %3, ptr %8, align 8, !tbaa !119
  call void @llvm.lifetime.start.p0(i64 4, ptr %9) #10
  store i32 34, ptr %9, align 4, !tbaa !122
  %10 = load i32, ptr %6, align 4, !tbaa !122
  %11 = icmp sge i32 %10, 0
  br i1 %11, label %12, label %15

12:                                               ; preds = %4
  %13 = load i32, ptr %9, align 4, !tbaa !122
  %14 = or i32 %13, 8
  store i32 %14, ptr %9, align 4, !tbaa !122
  br label %15

15:                                               ; preds = %12, %4
  %16 = load i32, ptr %6, align 4, !tbaa !122
  %17 = icmp sgt i32 %16, 0
  br i1 %17, label %18, label %21

18:                                               ; preds = %15
  %19 = load i32, ptr %9, align 4, !tbaa !122
  %20 = or i32 %19, 16
  store i32 %20, ptr %9, align 4, !tbaa !122
  br label %21

21:                                               ; preds = %18, %15
  %22 = load i32, ptr %7, align 4, !tbaa !122
  %23 = icmp ne i32 %22, 0
  br i1 %23, label %24, label %27

24:                                               ; preds = %21
  %25 = load i32, ptr %9, align 4, !tbaa !122
  %26 = or i32 %25, 64
  store i32 %26, ptr %9, align 4, !tbaa !122
  br label %27

27:                                               ; preds = %24, %21
  %28 = load ptr, ptr %5, align 8, !tbaa !136
  %29 = load ptr, ptr %8, align 8, !tbaa !119
  %30 = load i32, ptr %9, align 4, !tbaa !122
  %31 = call i32 @expect_quic_as(ptr noundef %28, ptr noundef %29, i32 noundef %30)
  call void @llvm.lifetime.end.p0(i64 4, ptr %9) #10
  ret i32 %31
}

; Function Attrs: nounwind uwtable
define i32 @ossl_quic_set_write_buffer_size(ptr noundef %0, i64 noundef %1) #0 {
  %3 = alloca i32, align 4
  %4 = alloca ptr, align 8
  %5 = alloca i64, align 8
  %6 = alloca i32, align 4
  %7 = alloca %struct.qctx_st, align 8
  %8 = alloca i32, align 4
  store ptr %0, ptr %4, align 8, !tbaa !136
  store i64 %1, ptr %5, align 8, !tbaa !169
  call void @llvm.lifetime.start.p0(i64 4, ptr %6) #10
  store i32 0, ptr %6, align 4, !tbaa !122
  call void @llvm.lifetime.start.p0(i64 56, ptr %7) #10
  %9 = load ptr, ptr %4, align 8, !tbaa !136
  %10 = call i32 @expect_quic_with_stream_lock(ptr noundef %9, i32 noundef -1, i32 noundef 0, ptr noundef %7)
  %11 = icmp ne i32 %10, 0
  br i1 %11, label %13, label %12

12:                                               ; preds = %2
  store i32 0, ptr %3, align 4
  store i32 1, ptr %8, align 4
  br label %45

13:                                               ; preds = %2
  %14 = getelementptr inbounds nuw %struct.qctx_st, ptr %7, i32 0, i32 4
  %15 = load ptr, ptr %14, align 8, !tbaa !141
  %16 = getelementptr inbounds nuw %struct.quic_xso_st, ptr %15, i32 0, i32 2
  %17 = load ptr, ptr %16, align 8, !tbaa !142
  %18 = call i32 @ossl_quic_stream_has_send(ptr noundef %17)
  %19 = icmp ne i32 %18, 0
  br i1 %19, label %22, label %20

20:                                               ; preds = %13
  %21 = call i32 (ptr, ptr, i32, ptr, i32, ptr, ...) @quic_raise_non_normal_error(ptr noundef %7, ptr noundef @.str, i32 noundef 4087, ptr noundef @__func__.ossl_quic_set_write_buffer_size, i32 noundef 786689, ptr noundef null)
  br label %43

22:                                               ; preds = %13
  %23 = getelementptr inbounds nuw %struct.qctx_st, ptr %7, i32 0, i32 4
  %24 = load ptr, ptr %23, align 8, !tbaa !141
  %25 = getelementptr inbounds nuw %struct.quic_xso_st, ptr %24, i32 0, i32 2
  %26 = load ptr, ptr %25, align 8, !tbaa !142
  %27 = call i32 @ossl_quic_stream_has_send_buffer(ptr noundef %26)
  %28 = icmp ne i32 %27, 0
  br i1 %28, label %30, label %29

29:                                               ; preds = %22
  store i32 1, ptr %6, align 4, !tbaa !122
  br label %43

30:                                               ; preds = %22
  %31 = getelementptr inbounds nuw %struct.qctx_st, ptr %7, i32 0, i32 4
  %32 = load ptr, ptr %31, align 8, !tbaa !141
  %33 = getelementptr inbounds nuw %struct.quic_xso_st, ptr %32, i32 0, i32 2
  %34 = load ptr, ptr %33, align 8, !tbaa !142
  %35 = getelementptr inbounds nuw %struct.quic_stream_st, ptr %34, i32 0, i32 11
  %36 = load ptr, ptr %35, align 8, !tbaa !145
  %37 = load i64, ptr %5, align 8, !tbaa !169
  %38 = call i32 @ossl_quic_sstream_set_buffer_size(ptr noundef %36, i64 noundef %37)
  %39 = icmp ne i32 %38, 0
  br i1 %39, label %42, label %40

40:                                               ; preds = %30
  %41 = call i32 (ptr, ptr, i32, ptr, i32, ptr, ...) @quic_raise_non_normal_error(ptr noundef %7, ptr noundef @.str, i32 noundef 4101, ptr noundef @__func__.ossl_quic_set_write_buffer_size, i32 noundef 786691, ptr noundef null)
  br label %43

42:                                               ; preds = %30
  store i32 1, ptr %6, align 4, !tbaa !122
  br label %43

43:                                               ; preds = %42, %40, %29, %20
  call void @qctx_unlock(ptr noundef %7)
  %44 = load i32, ptr %6, align 4, !tbaa !122
  store i32 %44, ptr %3, align 4
  store i32 1, ptr %8, align 4
  br label %45

45:                                               ; preds = %43, %12
  call void @llvm.lifetime.end.p0(i64 56, ptr %7) #10
  call void @llvm.lifetime.end.p0(i64 4, ptr %6) #10
  %46 = load i32, ptr %3, align 4
  ret i32 %46
}