; Function Attrs: nounwind uwtable
define range(i32 0, 2) i32 @ossl_quic_set_write_buffer_size(ptr noundef %0, i64 noundef %1) local_unnamed_addr #0 {
  %3 = alloca %struct.qctx_st, align 8
  call void @llvm.lifetime.start.p0(i64 56, ptr nonnull %3) #12
  %4 = call fastcc range(i32 0, 2) i32 @expect_quic_as(ptr noundef %0, ptr noundef nonnull %3, i32 noundef 34)
  %.not = icmp eq i32 %4, 0
  br i1 %.not, label %24, label %5

5:                                                ; preds = %2
  %6 = getelementptr inbounds nuw i8, ptr %3, i64 32
  %7 = load ptr, ptr %6, align 8, !tbaa !130
  %8 = getelementptr inbounds nuw i8, ptr %7, i64 128
  %9 = load ptr, ptr %8, align 8, !tbaa !145
  %10 = getelementptr i8, ptr %9, i64 256
  %.val7 = load i64, ptr %10, align 8
  %11 = and i64 %.val7, 65280
  %.not9 = icmp eq i64 %11, 0
  br i1 %.not9, label %12, label %13

12:                                               ; preds = %5
  call void (ptr, ptr, i32, ptr, i32, ptr, ...) @quic_raise_non_normal_error(ptr noundef nonnull %3, ptr nonnull poison, i32 noundef 4087, ptr noundef nonnull @__func__.ossl_quic_set_write_buffer_size, i32 noundef 786689, ptr noundef null)
  br label %21

13:                                               ; preds = %5
  %14 = lshr i64 %.val7, 8
  %trunc.i = trunc i64 %14 to i8
  %15 = add i8 %trunc.i, -4
  %switch.i = icmp ult i8 %15, -3
  br i1 %switch.i, label %21, label %16

16:                                               ; preds = %13
  %17 = getelementptr inbounds nuw i8, ptr %9, i64 112
  %18 = load ptr, ptr %17, align 8, !tbaa !146
  %19 = call i32 @ossl_quic_sstream_set_buffer_size(ptr noundef %18, i64 noundef %1) #12
  %.not6 = icmp eq i32 %19, 0
  br i1 %.not6, label %20, label %21

20:                                               ; preds = %16
  call void (ptr, ptr, i32, ptr, i32, ptr, ...) @quic_raise_non_normal_error(ptr noundef nonnull %3, ptr nonnull poison, i32 noundef 4101, ptr noundef nonnull @__func__.ossl_quic_set_write_buffer_size, i32 noundef 786691, ptr noundef null)
  br label %21

21:                                               ; preds = %16, %13, %20, %12
  %.0 = phi i32 [ 0, %20 ], [ 0, %12 ], [ 1, %13 ], [ 1, %16 ]
  %.val = load ptr, ptr %3, align 8, !tbaa !157
  %22 = getelementptr i8, ptr %.val, i64 88
  %.val.val = load ptr, ptr %22, align 8, !tbaa !143
  %23 = call ptr @ossl_quic_engine_get0_mutex(ptr noundef %.val.val) #12
  call void @ossl_crypto_mutex_unlock(ptr noundef %23) #12
  br label %24

24:                                               ; preds = %2, %21
  %.03 = phi i32 [ %.0, %21 ], [ 0, %2 ]
  call void @llvm.lifetime.end.p0(i64 56, ptr nonnull %3) #12
  ret i32 %.03
}